target datalayout = "e-m:e-p270:32:32-p271:32:32-p272:64:64-i64:64-i128:128-f80:128-n8:16:32:64-S128"
target triple = "x86_64-pc-linux-gnu"

%struct.strbuf = type { i64, i64, ptr }
%union.pthread_mutex_t = type { %struct.__pthread_mutex_s }
%struct.__pthread_mutex_s = type { i32, i32, i32, i32, i32, i16, i16, %struct.__pthread_internal_list }
%struct.__pthread_internal_list = type { ptr, ptr }
%struct.repository = type { ptr, ptr, ptr, ptr, ptr, %struct.strmap, %struct.strmap, %struct.repo_path_cache, ptr, ptr, ptr, ptr, %struct.repo_settings, ptr, ptr, ptr, ptr, ptr, ptr, i32, i32, i32, ptr, ptr, i32, i32, i8 }
%struct.strmap = type { %struct.hashmap, ptr, i8 }
%struct.hashmap = type { ptr, ptr, ptr, i32, i32, i32, i32, i8 }
%struct.repo_path_cache = type { ptr, ptr, ptr, ptr, ptr, ptr, ptr }
%struct.repo_settings = type { i32, i32, i32, i32, i32, i32, i32, i32, i32, i32, i32, i32, ptr, i32, i32, i32, i32, i32, i32, i32, i64, i64, i64 }
%struct.raw_object_store = type { ptr, ptr, ptr, i32, ptr, ptr, i8, %union.pthread_mutex_t, ptr, i8, ptr, ptr, %struct.list_head, %struct.anon, %struct.hashmap, i64, i8 }
%struct.list_head = type { ptr, ptr }
%struct.anon = type { ptr, i32 }
%struct.object_directory = type { ptr, [8 x i32], ptr, ptr, i32, i32, ptr }

@stat_loose_object.buf = internal global %struct.strbuf { i64 0, i64 0, ptr @strbuf_slopbuf }, align 8

; Function Attrs: nounwind uwtable
define internal i32 @stat_loose_object(ptr noundef %0, ptr noundef %1, ptr noundef %2, ptr noundef %3) #0 {
  %5 = alloca i32, align 4
  %6 = alloca ptr, align 8
  %7 = alloca ptr, align 8
  %8 = alloca ptr, align 8
  %9 = alloca ptr, align 8
  %10 = alloca ptr, align 8
  %11 = alloca i32, align 4
  store ptr %0, ptr %6, align 8, !tbaa !19
  store ptr %1, ptr %7, align 8, !tbaa !14
  store ptr %2, ptr %8, align 8, !tbaa !178
  store ptr %3, ptr %9, align 8, !tbaa !113
  call void @llvm.lifetime.start.p0(i64 8, ptr %10) #14
  %12 = load ptr, ptr %6, align 8, !tbaa !19
  call void @prepare_alt_odb(ptr noundef %12)
  %13 = load ptr, ptr %6, align 8, !tbaa !19
  %14 = getelementptr inbounds nuw %struct.repository, ptr %13, i32 0, i32 2
  %15 = load ptr, ptr %14, align 8, !tbaa !64
  %16 = getelementptr inbounds nuw %struct.raw_object_store, ptr %15, i32 0, i32 0
  %17 = load ptr, ptr %16, align 8, !tbaa !65
  store ptr %17, ptr %10, align 8, !tbaa !78
  br label %18

18:                                               ; preds = %33, %4
  %19 = load ptr, ptr %10, align 8, !tbaa !78
  %20 = icmp ne ptr %19, null
  br i1 %20, label %21, label %37

21:                                               ; preds = %18
  %22 = load ptr, ptr %10, align 8, !tbaa !78
  %23 = load ptr, ptr %7, align 8, !tbaa !14
  %24 = call ptr @odb_loose_path(ptr noundef %22, ptr noundef @stat_loose_object.buf, ptr noundef %23)
  %25 = load ptr, ptr %9, align 8, !tbaa !113
  store ptr %24, ptr %25, align 8, !tbaa !12
  %26 = load ptr, ptr %9, align 8, !tbaa !113
  %27 = load ptr, ptr %26, align 8, !tbaa !12
  %28 = load ptr, ptr %8, align 8, !tbaa !178
  %29 = call i32 @lstat64(ptr noundef %27, ptr noundef %28) #14
  %30 = icmp ne i32 %29, 0
  br i1 %30, label %32, label %31

31:                                               ; preds = %21
  store i32 0, ptr %5, align 4
  store i32 1, ptr %11, align 4
  br label %38

32:                                               ; preds = %21
  br label %33

33:                                               ; preds = %32
  %34 = load ptr, ptr %10, align 8, !tbaa !78
  %35 = getelementptr inbounds nuw %struct.object_directory, ptr %34, i32 0, i32 0
  %36 = load ptr, ptr %35, align 8, !tbaa !97
  store ptr %36, ptr %10, align 8, !tbaa !78
  br label %18, !llvm.loop !227

37:                                               ; preds = %18
  store i32 -1, ptr %5, align 4
  store i32 1, ptr %11, align 4
  br label %38

38:                                               ; preds = %37, %31
  call void @llvm.lifetime.end.p0(i64 8, ptr %10) #14
  %39 = load i32, ptr %5, align 4
  ret i32 %39
}