; Function Attrs: nounwind uwtable
define internal fastcc range(i32 -1, 1) i32 @stat_loose_object(ptr noundef readonly captures(none) %0, ptr noundef readonly captures(none) %1, ptr noundef nonnull captures(none) %2, ptr noundef nonnull writeonly captures(none) %3) unnamed_addr #1 {
  tail call void @prepare_alt_odb(ptr noundef %0)
  %5 = getelementptr inbounds nuw i8, ptr %0, i64 16
  %6 = load ptr, ptr %5, align 8, !tbaa !54
  br label %7

7:                                                ; preds = %8, %4
  %.0.in = phi ptr [ %6, %4 ], [ %.0, %8 ]
  %.0 = load ptr, ptr %.0.in, align 8, !tbaa !86
  %.not = icmp eq ptr %.0, null
  br i1 %.not, label %11, label %8

8:                                                ; preds = %7
  %9 = tail call fastcc ptr @odb_loose_path(ptr noundef nonnull %.0, ptr noundef nonnull @stat_loose_object.buf, ptr noundef %1)
  store ptr %9, ptr %3, align 8, !tbaa !79
  %10 = tail call i32 @lstat64(ptr noundef %9, ptr noundef nonnull %2) #27
  %.not10 = icmp eq i32 %10, 0
  br i1 %.not10, label %11, label %7, !llvm.loop !182

11:                                               ; preds = %7, %8
  %.09 = phi i32 [ 0, %8 ], [ -1, %7 ]
  ret i32 %.09
}